target datalayout = "e-m:e-p270:32:32-p271:32:32-p272:64:64-i64:64-i128:128-f80:128-n8:16:32:64-S128"
target triple = "x86_64-pc-linux-gnu"

%"class.llvm::Value" = type { i8, i8, i16, i32, ptr, ptr }
%"class.llvm::ilist_node_impl.3" = type { %"class.llvm::ilist_node_base.4" }
%"class.llvm::ilist_node_base.4" = type { %"class.llvm::ilist_detail::node_base_prevnext.5", %"class.llvm::ilist_detail::node_base_parent.6" }
%"class.llvm::ilist_detail::node_base_prevnext.5" = type { ptr, ptr }
%"class.llvm::ilist_detail::node_base_parent.6" = type { ptr }
%"class.llvm::User" = type { %"class.llvm::Value" }
%"class.llvm::Use" = type { ptr, ptr, ptr, ptr }
%"class.llvm::SmallPtrSetImplBase" = type <{ ptr, ptr, i32, i32, i32, [4 x i8] }>
%"class.llvm::DebugLoc" = type { %"class.llvm::TypedTrackingMDRef" }
%"class.llvm::TypedTrackingMDRef" = type { %"class.llvm::TrackingMDRef" }
%"class.llvm::TrackingMDRef" = type { ptr }
%"class.llvm::Instruction" = type { %"class.llvm::User", %"class.llvm::ilist_node_with_parent.11", %"class.llvm::DebugLoc", i32, ptr }
%"class.llvm::ilist_node_with_parent.11" = type { %"class.llvm::ilist_node.12" }
%"class.llvm::ilist_node.12" = type { %"class.llvm::ilist_node_impl.3" }
%"class.llvm::PHINode" = type <{ %"class.llvm::Instruction", i32, [4 x i8] }>
%class.anon.421 = type { ptr, ptr }

; Function Attrs: mustprogress nounwind uwtable
define linkonce_odr hidden noundef nonnull align 8 dereferenceable(8) ptr @_ZN4llvm4User18getHungOffOperandsEv(ptr noundef nonnull align 8 dereferenceable(24) %0) #1 comdat align 2 {
  %2 = alloca ptr, align 8
  store ptr %0, ptr %2, align 8
  %3 = load ptr, ptr %2, align 8
  %4 = getelementptr inbounds ptr, ptr %3, i64 -1
  ret ptr %4
}

; Function Attrs: mustprogress nounwind uwtable
define linkonce_odr hidden noundef ptr @_ZN4llvm20HungoffOperandTraits8op_beginEPNS_4UserE(ptr noundef %0) #1 comdat align 2 {
  %2 = alloca ptr, align 8
  store ptr %0, ptr %2, align 8
  %3 = load ptr, ptr %2, align 8
  %4 = call noundef nonnull align 8 dereferenceable(8) ptr @_ZN4llvm4User18getHungOffOperandsEv(ptr noundef nonnull align 8 dereferenceable(24) %3)
  %5 = load ptr, ptr %4, align 8
  ret ptr %5
}

; Function Attrs: mustprogress nounwind uwtable
define linkonce_odr hidden noundef zeroext i1 @_ZNK4llvm19SmallPtrSetImplBase7isSmallEv(ptr noundef nonnull align 8 dereferenceable(28) %0) #1 comdat align 2 {
  %2 = alloca ptr, align 8
  store ptr %0, ptr %2, align 8
  %3 = load ptr, ptr %2, align 8
  %4 = getelementptr inbounds nuw %"class.llvm::SmallPtrSetImplBase", ptr %3, i32 0, i32 1
  %5 = load ptr, ptr %4, align 8
  %6 = getelementptr inbounds nuw %"class.llvm::SmallPtrSetImplBase", ptr %3, i32 0, i32 0
  %7 = load ptr, ptr %6, align 8
  %8 = icmp eq ptr %5, %7
  ret i1 %8
}

; Function Attrs: mustprogress nounwind uwtable
define linkonce_odr hidden noundef ptr @_ZN4llvm21PointerLikeTypeTraitsIPNS_10BasicBlockEE16getAsVoidPointerES2_(ptr noundef %0) #1 comdat align 2 {
  %2 = alloca ptr, align 8
  store ptr %0, ptr %2, align 8
  %3 = load ptr, ptr %2, align 8
  ret ptr %3
}

; Function Attrs: mustprogress nounwind uwtable
define linkonce_odr hidden noundef ptr @_ZNK4llvm7PHINode8op_beginEv(ptr noundef nonnull align 8 dereferenceable(76) %0) #1 comdat align 2 {
  %2 = alloca ptr, align 8
  store ptr %0, ptr %2, align 8
  %3 = load ptr, ptr %2, align 8
  %4 = call noundef ptr @_ZN4llvm20HungoffOperandTraits8op_beginEPNS_4UserE(ptr noundef %3)
  ret ptr %4
}

; Function Attrs: mustprogress nounwind uwtable
define linkonce_odr hidden noundef ptr @_ZNK4llvm19SmallPtrSetImplBase10EndPointerEv(ptr noundef nonnull align 8 dereferenceable(28) %0) #1 comdat align 2 {
  %2 = alloca ptr, align 8
  store ptr %0, ptr %2, align 8
  %3 = load ptr, ptr %2, align 8
  %4 = call noundef zeroext i1 @_ZNK4llvm19SmallPtrSetImplBase7isSmallEv(ptr noundef nonnull align 8 dereferenceable(28) %3)
  br i1 %4, label %5, label %12

5:                                                ; preds = %1
  %6 = getelementptr inbounds nuw %"class.llvm::SmallPtrSetImplBase", ptr %3, i32 0, i32 1
  %7 = load ptr, ptr %6, align 8
  %8 = getelementptr inbounds nuw %"class.llvm::SmallPtrSetImplBase", ptr %3, i32 0, i32 3
  %9 = load i32, ptr %8, align 4
  %10 = zext i32 %9 to i64
  %11 = getelementptr inbounds ptr, ptr %7, i64 %10
  br label %19

12:                                               ; preds = %1
  %13 = getelementptr inbounds nuw %"class.llvm::SmallPtrSetImplBase", ptr %3, i32 0, i32 1
  %14 = load ptr, ptr %13, align 8
  %15 = getelementptr inbounds nuw %"class.llvm::SmallPtrSetImplBase", ptr %3, i32 0, i32 2
  %16 = load i32, ptr %15, align 8
  %17 = zext i32 %16 to i64
  %18 = getelementptr inbounds ptr, ptr %14, i64 %17
  br label %19

19:                                               ; preds = %12, %5
  %20 = phi ptr [ %11, %5 ], [ %18, %12 ]
  ret ptr %20
}

; Function Attrs: mustprogress nounwind uwtable
define linkonce_odr hidden noundef ptr @_ZNK4llvm19SmallPtrSetImplBase8find_impEPKv(ptr noundef nonnull align 8 dereferenceable(28) %0, ptr noundef %1) #1 comdat align 2 {
  %3 = alloca ptr, align 8
  %4 = alloca ptr, align 8
  %5 = alloca ptr, align 8
  %6 = alloca ptr, align 8
  %7 = alloca ptr, align 8
  %8 = alloca ptr, align 8
  store ptr %0, ptr %4, align 8
  store ptr %1, ptr %5, align 8
  %9 = load ptr, ptr %4, align 8
  %10 = call noundef zeroext i1 @_ZNK4llvm19SmallPtrSetImplBase7isSmallEv(ptr noundef nonnull align 8 dereferenceable(28) %9)
  br i1 %10, label %11, label %37

11:                                               ; preds = %2
  %12 = getelementptr inbounds nuw %"class.llvm::SmallPtrSetImplBase", ptr %9, i32 0, i32 0
  %13 = load ptr, ptr %12, align 8
  store ptr %13, ptr %6, align 8
  %14 = getelementptr inbounds nuw %"class.llvm::SmallPtrSetImplBase", ptr %9, i32 0, i32 0
  %15 = load ptr, ptr %14, align 8
  %16 = getelementptr inbounds nuw %"class.llvm::SmallPtrSetImplBase", ptr %9, i32 0, i32 3
  %17 = load i32, ptr %16, align 4
  %18 = zext i32 %17 to i64
  %19 = getelementptr inbounds ptr, ptr %15, i64 %18
  store ptr %19, ptr %7, align 8
  br label %20

20:                                               ; preds = %32, %11
  %21 = load ptr, ptr %6, align 8
  %22 = load ptr, ptr %7, align 8
  %23 = icmp ne ptr %21, %22
  br i1 %23, label %24, label %35

24:                                               ; preds = %20
  %25 = load ptr, ptr %6, align 8
  %26 = load ptr, ptr %25, align 8
  %27 = load ptr, ptr %5, align 8
  %28 = icmp eq ptr %26, %27
  br i1 %28, label %29, label %31

29:                                               ; preds = %24
  %30 = load ptr, ptr %6, align 8
  store ptr %30, ptr %3, align 8
  br label %46

31:                                               ; preds = %24
  br label %32

32:                                               ; preds = %31
  %33 = load ptr, ptr %6, align 8
  %34 = getelementptr inbounds ptr, ptr %33, i32 1
  store ptr %34, ptr %6, align 8
  br label %20, !llvm.loop !74

35:                                               ; preds = %20
  %36 = call noundef ptr @_ZNK4llvm19SmallPtrSetImplBase10EndPointerEv(ptr noundef nonnull align 8 dereferenceable(28) %9)
  store ptr %36, ptr %3, align 8
  br label %46

37:                                               ; preds = %2
  %38 = load ptr, ptr %5, align 8
  %39 = call noundef ptr @_ZNK4llvm19SmallPtrSetImplBase6doFindEPKv(ptr noundef nonnull align 8 dereferenceable(28) %9, ptr noundef %38)
  store ptr %39, ptr %8, align 8
  %40 = load ptr, ptr %8, align 8
  %41 = icmp ne ptr %40, null
  br i1 %41, label %42, label %44

42:                                               ; preds = %37
  %43 = load ptr, ptr %8, align 8
  store ptr %43, ptr %3, align 8
  br label %46

44:                                               ; preds = %37
  %45 = call noundef ptr @_ZNK4llvm19SmallPtrSetImplBase10EndPointerEv(ptr noundef nonnull align 8 dereferenceable(28) %9)
  store ptr %45, ptr %3, align 8
  br label %46

46:                                               ; preds = %44, %42, %35, %29
  %47 = load ptr, ptr %3, align 8
  ret ptr %47
}

; Function Attrs: mustprogress nounwind uwtable
define linkonce_odr hidden noundef ptr @_ZN4llvm21PointerLikeTypeTraitsIPKNS_10BasicBlockEE16getAsVoidPointerES3_(ptr noundef %0) #1 comdat align 2 {
  %2 = alloca ptr, align 8
  store ptr %0, ptr %2, align 8
  %3 = load ptr, ptr %2, align 8
  %4 = call noundef ptr @_ZN4llvm21PointerLikeTypeTraitsIPNS_10BasicBlockEE16getAsVoidPointerES2_(ptr noundef %3)
  ret ptr %4
}

; Function Attrs: mustprogress nounwind uwtable
define linkonce_odr hidden noundef ptr @_ZNK4llvm7PHINode11block_beginEv(ptr noundef nonnull align 8 dereferenceable(76) %0) #1 comdat align 2 {
  %2 = alloca ptr, align 8
  store ptr %0, ptr %2, align 8
  %3 = load ptr, ptr %2, align 8
  %4 = call noundef ptr @_ZNK4llvm7PHINode8op_beginEv(ptr noundef nonnull align 8 dereferenceable(76) %3)
  %5 = getelementptr inbounds nuw %"class.llvm::PHINode", ptr %3, i32 0, i32 1
  %6 = load i32, ptr %5, align 8
  %7 = zext i32 %6 to i64
  %8 = getelementptr inbounds %"class.llvm::Use", ptr %4, i64 %7
  ret ptr %8
}

; Function Attrs: mustprogress nounwind uwtable
define linkonce_odr hidden noundef zeroext i1 @_ZNK4llvm15SmallPtrSetImplIPNS_10BasicBlockEE8containsEPKS1_(ptr noundef nonnull align 8 dereferenceable(28) %0, ptr noundef %1) #1 comdat align 2 {
  %3 = alloca ptr, align 8
  %4 = alloca ptr, align 8
  store ptr %0, ptr %3, align 8
  store ptr %1, ptr %4, align 8
  %5 = load ptr, ptr %3, align 8
  %6 = load ptr, ptr %4, align 8
  %7 = call noundef ptr @_ZN4llvm21PointerLikeTypeTraitsIPKNS_10BasicBlockEE16getAsVoidPointerES3_(ptr noundef %6)
  %8 = call noundef ptr @_ZNK4llvm19SmallPtrSetImplBase8find_impEPKv(ptr noundef nonnull align 8 dereferenceable(28) %5, ptr noundef %7)
  %9 = call noundef ptr @_ZNK4llvm19SmallPtrSetImplBase10EndPointerEv(ptr noundef nonnull align 8 dereferenceable(28) %5)
  %10 = icmp ne ptr %8, %9
  ret i1 %10
}

; Function Attrs: mustprogress nounwind uwtable
define linkonce_odr hidden noundef ptr @_ZNK4llvm7PHINode16getIncomingBlockEj(ptr noundef nonnull align 8 dereferenceable(76) %0, i32 noundef %1) #1 comdat align 2 {
  %3 = alloca ptr, align 8
  %4 = alloca i32, align 4
  store ptr %0, ptr %3, align 8
  store i32 %1, ptr %4, align 4
  %5 = load ptr, ptr %3, align 8
  %6 = call noundef ptr @_ZNK4llvm7PHINode11block_beginEv(ptr noundef nonnull align 8 dereferenceable(76) %5)
  %7 = load i32, ptr %4, align 4
  %8 = zext i32 %7 to i64
  %9 = getelementptr inbounds ptr, ptr %6, i64 %8
  %10 = load ptr, ptr %9, align 8
  ret ptr %10
}

; Function Attrs: mustprogress nounwind uwtable
define internal noundef zeroext i1 @"_ZZL14UpdatePHINodesPN4llvm10BasicBlockES1_NS_8ArrayRefIS1_EEPNS_10BranchInstEbENK3$_0clEj"(ptr noundef nonnull align 8 dereferenceable(16) %0, i32 noundef %1) #1 align 2 {
  %3 = alloca ptr, align 8
  %4 = alloca i32, align 4
  store ptr %0, ptr %3, align 8
  store i32 %1, ptr %4, align 4
  %5 = load ptr, ptr %3, align 8
  %6 = getelementptr inbounds nuw %class.anon.421, ptr %5, i32 0, i32 0
  %7 = load ptr, ptr %6, align 8
  %8 = getelementptr inbounds nuw %class.anon.421, ptr %5, i32 0, i32 1
  %9 = load ptr, ptr %8, align 8
  %10 = load ptr, ptr %9, align 8
  %11 = load i32, ptr %4, align 4
  %12 = call noundef ptr @_ZNK4llvm7PHINode16getIncomingBlockEj(ptr noundef nonnull align 8 dereferenceable(76) %10, i32 noundef %11)
  %13 = call noundef zeroext i1 @_ZNK4llvm15SmallPtrSetImplIPNS_10BasicBlockEE8containsEPKS1_(ptr noundef nonnull align 8 dereferenceable(28) %7, ptr noundef %12)
  ret i1 %13
}

; Function Attrs: mustprogress nounwind uwtable
define internal noundef zeroext i1 @"_ZN4llvm12function_refIFbjEE11callback_fnIZL14UpdatePHINodesPNS_10BasicBlockES5_NS_8ArrayRefIS5_EEPNS_10BranchInstEbE3$_0EEblj"(i64 noundef %0, i32 noundef %1) #1 align 2 {
  %3 = alloca i64, align 8
  %4 = alloca i32, align 4
  store i64 %0, ptr %3, align 8
  store i32 %1, ptr %4, align 4
  %5 = load i64, ptr %3, align 8
  %6 = inttoptr i64 %5 to ptr
  %7 = load i32, ptr %4, align 4
  %8 = call noundef zeroext i1 @"_ZZL14UpdatePHINodesPN4llvm10BasicBlockES1_NS_8ArrayRefIS1_EEPNS_10BranchInstEbENK3$_0clEj"(ptr noundef nonnull align 8 dereferenceable(16) %6, i32 noundef %7)
  ret i1 %8
}