; Function Attrs: mustprogress nounwind uwtable
define internal noundef zeroext i1 @"_ZN4llvm12function_refIFbjEE11callback_fnIZL14UpdatePHINodesPNS_10BasicBlockES5_NS_8ArrayRefIS5_EEPNS_10BranchInstEbE3$_0EEblj"(i64 noundef %0, i32 noundef %1) #0 align 2 {
  %3 = inttoptr i64 %0 to ptr
  %.val = load ptr, ptr %3, align 8
  %4 = getelementptr i8, ptr %3, i64 8
  %.val2 = load ptr, ptr %4, align 8
  %.val2.val = load ptr, ptr %.val2, align 8
  %5 = getelementptr i8, ptr %.val2.val, i64 -8
  %.val2.val.val = load ptr, ptr %5, align 8
  %6 = getelementptr i8, ptr %.val2.val, i64 72
  %.val2.val.val3 = load i32, ptr %6, align 8
  %7 = zext i32 %.val2.val.val3 to i64
  %8 = getelementptr inbounds %"class.llvm::Use", ptr %.val2.val.val, i64 %7
  %9 = zext i32 %1 to i64
  %10 = getelementptr inbounds ptr, ptr %8, i64 %9
  %11 = load ptr, ptr %10, align 8
  %12 = getelementptr inbounds nuw i8, ptr %.val, i64 8
  %13 = load ptr, ptr %12, align 8
  %14 = load ptr, ptr %.val, align 8
  %15 = icmp eq ptr %13, %14
  br i1 %15, label %16, label %26

16:                                               ; preds = %2
  %17 = getelementptr inbounds nuw i8, ptr %.val, i64 20
  %18 = load i32, ptr %17, align 4
  %19 = zext i32 %18 to i64
  %20 = getelementptr inbounds ptr, ptr %14, i64 %19
  %.not1317.i.i.i = icmp eq i32 %18, 0
  br i1 %.not1317.i.i.i, label %._crit_edge.i.i.i, label %.lr.ph.i.i.i

.lr.ph.i.i.i:                                     ; preds = %16, %23
  %.01118.i.i.i = phi ptr [ %24, %23 ], [ %14, %16 ]
  %21 = load ptr, ptr %.01118.i.i.i, align 8
  %22 = icmp eq ptr %21, %11
  br i1 %22, label %"_ZZL14UpdatePHINodesPN4llvm10BasicBlockES1_NS_8ArrayRefIS1_EEPNS_10BranchInstEbENK3$_0clEj.exit", label %23

23:                                               ; preds = %.lr.ph.i.i.i
  %24 = getelementptr inbounds i8, ptr %.01118.i.i.i, i64 8
  %.not13.i.i.i = icmp eq ptr %24, %20
  br i1 %.not13.i.i.i, label %._crit_edge.i.i.i, label %.lr.ph.i.i.i, !llvm.loop !26

._crit_edge.i.i.i:                                ; preds = %23, %16
  %25 = getelementptr inbounds ptr, ptr %13, i64 %19
  br label %"_ZZL14UpdatePHINodesPN4llvm10BasicBlockES1_NS_8ArrayRefIS1_EEPNS_10BranchInstEbENK3$_0clEj.exit"

26:                                               ; preds = %2
  %27 = tail call noundef ptr @_ZNK4llvm19SmallPtrSetImplBase6doFindEPKv(ptr noundef nonnull align 8 dereferenceable(28) %.val, ptr noundef %11) #21
  %.not.i.i.i = icmp eq ptr %27, null
  %.pre.i.i = load ptr, ptr %12, align 8
  %.pre4.i.i = load ptr, ptr %.val, align 8
  br i1 %.not.i.i.i, label %28, label %._ZNK4llvm19SmallPtrSetImplBase8find_impEPKv.exit_crit_edge.i.i

._ZNK4llvm19SmallPtrSetImplBase8find_impEPKv.exit_crit_edge.i.i: ; preds = %26
  %.phi.trans.insert.i.i = getelementptr inbounds nuw i8, ptr %.val, i64 20
  %.pre5.i.i = load i32, ptr %.phi.trans.insert.i.i, align 4
  br label %"_ZZL14UpdatePHINodesPN4llvm10BasicBlockES1_NS_8ArrayRefIS1_EEPNS_10BranchInstEbENK3$_0clEj.exit"

28:                                               ; preds = %26
  %29 = icmp eq ptr %.pre.i.i, %.pre4.i.i
  %30 = getelementptr inbounds nuw i8, ptr %.val, i64 20
  %31 = load i32, ptr %30, align 4
  %32 = getelementptr inbounds nuw i8, ptr %.val, i64 16
  %33 = load i32, ptr %32, align 8
  %.v.v.i14.i.i.i = select i1 %29, i32 %31, i32 %33
  %.v.i15.i.i.i = zext i32 %.v.v.i14.i.i.i to i64
  %34 = getelementptr inbounds ptr, ptr %.pre.i.i, i64 %.v.i15.i.i.i
  br label %"_ZZL14UpdatePHINodesPN4llvm10BasicBlockES1_NS_8ArrayRefIS1_EEPNS_10BranchInstEbENK3$_0clEj.exit"

"_ZZL14UpdatePHINodesPN4llvm10BasicBlockES1_NS_8ArrayRefIS1_EEPNS_10BranchInstEbENK3$_0clEj.exit": ; preds = %.lr.ph.i.i.i, %._crit_edge.i.i.i, %._ZNK4llvm19SmallPtrSetImplBase8find_impEPKv.exit_crit_edge.i.i, %28
  %35 = phi i32 [ %18, %._crit_edge.i.i.i ], [ %31, %28 ], [ %.pre5.i.i, %._ZNK4llvm19SmallPtrSetImplBase8find_impEPKv.exit_crit_edge.i.i ], [ %18, %.lr.ph.i.i.i ]
  %36 = phi ptr [ %13, %._crit_edge.i.i.i ], [ %.pre4.i.i, %28 ], [ %.pre4.i.i, %._ZNK4llvm19SmallPtrSetImplBase8find_impEPKv.exit_crit_edge.i.i ], [ %13, %.lr.ph.i.i.i ]
  %37 = phi ptr [ %13, %._crit_edge.i.i.i ], [ %.pre.i.i, %28 ], [ %.pre.i.i, %._ZNK4llvm19SmallPtrSetImplBase8find_impEPKv.exit_crit_edge.i.i ], [ %13, %.lr.ph.i.i.i ]
  %.0.i.i.i = phi ptr [ %25, %._crit_edge.i.i.i ], [ %34, %28 ], [ %27, %._ZNK4llvm19SmallPtrSetImplBase8find_impEPKv.exit_crit_edge.i.i ], [ %.01118.i.i.i, %.lr.ph.i.i.i ]
  %38 = icmp eq ptr %37, %36
  %39 = getelementptr inbounds nuw i8, ptr %.val, i64 16
  %40 = load i32, ptr %39, align 8
  %.v.v.i.i.i = select i1 %38, i32 %35, i32 %40
  %.v.i.i.i = zext i32 %.v.v.i.i.i to i64
  %41 = getelementptr inbounds ptr, ptr %37, i64 %.v.i.i.i
  %42 = icmp ne ptr %.0.i.i.i, %41
  ret i1 %42
}